target datalayout = "e-m:e-p270:32:32-p271:32:32-p272:64:64-i64:64-i128:128-f80:128-n8:16:32:64-S128"
target triple = "x86_64-pc-linux-gnu"

%struct.JSValue = type { %union.JSValueUnion, i64 }
%union.JSValueUnion = type { double }
%struct.JSRefCountHeader = type { i32 }

; Function Attrs: nounwind uwtable
define internal void @JS_FreeValue(ptr noundef %0, i64 %1, i64 %2) #0 {
  %4 = alloca %struct.JSValue, align 8
  %5 = alloca ptr, align 8
  %6 = alloca ptr, align 8
  %7 = getelementptr inbounds { i64, i64 }, ptr %4, i32 0, i32 0
  store i64 %1, ptr %7, align 8
  %8 = getelementptr inbounds { i64, i64 }, ptr %4, i32 0, i32 1
  store i64 %2, ptr %8, align 8
  store ptr %0, ptr %5, align 8
  %9 = getelementptr inbounds %struct.JSValue, ptr %4, i32 0, i32 1
  %10 = load i64, ptr %9, align 8
  %11 = trunc i64 %10 to i32
  %12 = icmp uge i32 %11, -11
  br i1 %12, label %13, label %28

13:                                               ; preds = %3
  %14 = getelementptr inbounds %struct.JSValue, ptr %4, i32 0, i32 0
  %15 = load ptr, ptr %14, align 8
  store ptr %15, ptr %6, align 8
  %16 = load ptr, ptr %6, align 8
  %17 = getelementptr inbounds %struct.JSRefCountHeader, ptr %16, i32 0, i32 0
  %18 = load i32, ptr %17, align 4
  %19 = add i32 %18, -1
  store i32 %19, ptr %17, align 4
  %20 = icmp sle i32 %19, 0
  br i1 %20, label %21, label %27

21:                                               ; preds = %13
  %22 = load ptr, ptr %5, align 8
  %23 = getelementptr inbounds { i64, i64 }, ptr %4, i32 0, i32 0
  %24 = load i64, ptr %23, align 8
  %25 = getelementptr inbounds { i64, i64 }, ptr %4, i32 0, i32 1
  %26 = load i64, ptr %25, align 8
  call void @__JS_FreeValue(ptr noundef %22, i64 %24, i64 %26)
  br label %27

27:                                               ; preds = %21, %13
  br label %28

28:                                               ; preds = %27, %3
  ret void
}

; Function Attrs: nounwind uwtable
define internal i32 @JS_IsException(i64 %0, i64 %1) #0 {
  %3 = alloca %struct.JSValue, align 8
  %4 = getelementptr inbounds { i64, i64 }, ptr %3, i32 0, i32 0
  store i64 %0, ptr %4, align 8
  %5 = getelementptr inbounds { i64, i64 }, ptr %3, i32 0, i32 1
  store i64 %1, ptr %5, align 8
  %6 = getelementptr inbounds %struct.JSValue, ptr %3, i32 0, i32 1
  %7 = load i64, ptr %6, align 8
  %8 = trunc i64 %7 to i32
  %9 = icmp eq i32 %8, 6
  %10 = xor i1 %9, true
  %11 = xor i1 %10, true
  %12 = zext i1 %11 to i32
  %13 = sext i32 %12 to i64
  %14 = trunc i64 %13 to i32
  ret i32 %14
}

; Function Attrs: nounwind uwtable
define internal i32 @eval_buf(ptr noundef %0, ptr noundef %1, i32 noundef %2, ptr noundef %3, i32 noundef %4) #0 {
  %6 = alloca ptr, align 8
  %7 = alloca ptr, align 8
  %8 = alloca i32, align 4
  %9 = alloca ptr, align 8
  %10 = alloca i32, align 4
  %11 = alloca %struct.JSValue, align 8
  %12 = alloca i32, align 4
  %13 = alloca %struct.JSValue, align 8
  %14 = alloca %struct.JSValue, align 8
  %15 = alloca %struct.JSValue, align 8
  %16 = alloca %struct.JSValue, align 8
  store ptr %0, ptr %6, align 8
  store ptr %1, ptr %7, align 8
  store i32 %2, ptr %8, align 4
  store ptr %3, ptr %9, align 8
  store i32 %4, ptr %10, align 4
  %17 = load i32, ptr %10, align 4
  %18 = and i32 %17, 3
  %19 = icmp eq i32 %18, 1
  br i1 %19, label %20, label %67

20:                                               ; preds = %5
  %21 = load ptr, ptr %6, align 8
  %22 = load ptr, ptr %7, align 8
  %23 = load i32, ptr %8, align 4
  %24 = sext i32 %23 to i64
  %25 = load ptr, ptr %9, align 8
  %26 = load i32, ptr %10, align 4
  %27 = or i32 %26, 32
  %28 = call { i64, i64 } @JS_Eval(ptr noundef %21, ptr noundef %22, i64 noundef %24, ptr noundef %25, i32 noundef %27)
  %29 = getelementptr inbounds { i64, i64 }, ptr %13, i32 0, i32 0
  %30 = extractvalue { i64, i64 } %28, 0
  store i64 %30, ptr %29, align 8
  %31 = getelementptr inbounds { i64, i64 }, ptr %13, i32 0, i32 1
  %32 = extractvalue { i64, i64 } %28, 1
  store i64 %32, ptr %31, align 8
  call void @llvm.memcpy.p0.p0.i64(ptr align 8 %11, ptr align 8 %13, i64 16, i1 false)
  %33 = getelementptr inbounds { i64, i64 }, ptr %11, i32 0, i32 0
  %34 = load i64, ptr %33, align 8
  %35 = getelementptr inbounds { i64, i64 }, ptr %11, i32 0, i32 1
  %36 = load i64, ptr %35, align 8
  %37 = call i32 @JS_IsException(i64 %34, i64 %36)
  %38 = icmp ne i32 %37, 0
  br i1 %38, label %56, label %39

39:                                               ; preds = %20
  %40 = load ptr, ptr %6, align 8
  %41 = getelementptr inbounds { i64, i64 }, ptr %11, i32 0, i32 0
  %42 = load i64, ptr %41, align 8
  %43 = getelementptr inbounds { i64, i64 }, ptr %11, i32 0, i32 1
  %44 = load i64, ptr %43, align 8
  %45 = call i32 @js_module_set_import_meta(ptr noundef %40, i64 %42, i64 %44, i32 noundef 1, i32 noundef 1)
  %46 = load ptr, ptr %6, align 8
  %47 = getelementptr inbounds { i64, i64 }, ptr %11, i32 0, i32 0
  %48 = load i64, ptr %47, align 8
  %49 = getelementptr inbounds { i64, i64 }, ptr %11, i32 0, i32 1
  %50 = load i64, ptr %49, align 8
  %51 = call { i64, i64 } @JS_EvalFunction(ptr noundef %46, i64 %48, i64 %50)
  %52 = getelementptr inbounds { i64, i64 }, ptr %14, i32 0, i32 0
  %53 = extractvalue { i64, i64 } %51, 0
  store i64 %53, ptr %52, align 8
  %54 = getelementptr inbounds { i64, i64 }, ptr %14, i32 0, i32 1
  %55 = extractvalue { i64, i64 } %51, 1
  store i64 %55, ptr %54, align 8
  call void @llvm.memcpy.p0.p0.i64(ptr align 8 %11, ptr align 8 %14, i64 16, i1 false)
  br label %56

56:                                               ; preds = %39, %20
  %57 = load ptr, ptr %6, align 8
  %58 = getelementptr inbounds { i64, i64 }, ptr %11, i32 0, i32 0
  %59 = load i64, ptr %58, align 8
  %60 = getelementptr inbounds { i64, i64 }, ptr %11, i32 0, i32 1
  %61 = load i64, ptr %60, align 8
  %62 = call { i64, i64 } @js_std_await(ptr noundef %57, i64 %59, i64 %61)
  %63 = getelementptr inbounds { i64, i64 }, ptr %15, i32 0, i32 0
  %64 = extractvalue { i64, i64 } %62, 0
  store i64 %64, ptr %63, align 8
  %65 = getelementptr inbounds { i64, i64 }, ptr %15, i32 0, i32 1
  %66 = extractvalue { i64, i64 } %62, 1
  store i64 %66, ptr %65, align 8
  call void @llvm.memcpy.p0.p0.i64(ptr align 8 %11, ptr align 8 %15, i64 16, i1 false)
  br label %79

67:                                               ; preds = %5
  %68 = load ptr, ptr %6, align 8
  %69 = load ptr, ptr %7, align 8
  %70 = load i32, ptr %8, align 4
  %71 = sext i32 %70 to i64
  %72 = load ptr, ptr %9, align 8
  %73 = load i32, ptr %10, align 4
  %74 = call { i64, i64 } @JS_Eval(ptr noundef %68, ptr noundef %69, i64 noundef %71, ptr noundef %72, i32 noundef %73)
  %75 = getelementptr inbounds { i64, i64 }, ptr %16, i32 0, i32 0
  %76 = extractvalue { i64, i64 } %74, 0
  store i64 %76, ptr %75, align 8
  %77 = getelementptr inbounds { i64, i64 }, ptr %16, i32 0, i32 1
  %78 = extractvalue { i64, i64 } %74, 1
  store i64 %78, ptr %77, align 8
  call void @llvm.memcpy.p0.p0.i64(ptr align 8 %11, ptr align 8 %16, i64 16, i1 false)
  br label %79

79:                                               ; preds = %67, %56
  %80 = getelementptr inbounds { i64, i64 }, ptr %11, i32 0, i32 0
  %81 = load i64, ptr %80, align 8
  %82 = getelementptr inbounds { i64, i64 }, ptr %11, i32 0, i32 1
  %83 = load i64, ptr %82, align 8
  %84 = call i32 @JS_IsException(i64 %81, i64 %83)
  %85 = icmp ne i32 %84, 0
  br i1 %85, label %86, label %88

86:                                               ; preds = %79
  %87 = load ptr, ptr %6, align 8
  call void @js_std_dump_error(ptr noundef %87)
  store i32 -1, ptr %12, align 4
  br label %89

88:                                               ; preds = %79
  store i32 0, ptr %12, align 4
  br label %89

89:                                               ; preds = %88, %86
  %90 = load ptr, ptr %6, align 8
  %91 = getelementptr inbounds { i64, i64 }, ptr %11, i32 0, i32 0
  %92 = load i64, ptr %91, align 8
  %93 = getelementptr inbounds { i64, i64 }, ptr %11, i32 0, i32 1
  %94 = load i64, ptr %93, align 8
  call void @JS_FreeValue(ptr noundef %90, i64 %92, i64 %94)
  %95 = load i32, ptr %12, align 4
  ret i32 %95
}