; Function Attrs: nounwind uwtable
define internal fastcc noundef i32 @eval_buf(ptr noundef %0, ptr noundef %1, i32 noundef %2, ptr noundef %3, i32 noundef %4) unnamed_addr #3 {
  %6 = and i32 %4, 3
  %7 = icmp eq i32 %6, 1
  %8 = sext i32 %2 to i64
  br i1 %7, label %9, label %22

9:                                                ; preds = %5
  %10 = or i32 %4, 32
  %11 = tail call { i64, i64 } @JS_Eval(ptr noundef %0, ptr noundef %1, i64 noundef %8, ptr noundef %3, i32 noundef %10) #16
  %12 = extractvalue { i64, i64 } %11, 0
  %13 = extractvalue { i64, i64 } %11, 1
  %14 = and i64 %13, 4294967295
  %.not = icmp eq i64 %14, 6
  br i1 %.not, label %20, label %15

15:                                               ; preds = %9
  %16 = tail call i32 @js_module_set_import_meta(ptr noundef %0, i64 %12, i64 %13, i32 noundef 1, i32 noundef 1) #16
  %17 = tail call { i64, i64 } @JS_EvalFunction(ptr noundef %0, i64 %12, i64 %13) #16
  %18 = extractvalue { i64, i64 } %17, 0
  %19 = extractvalue { i64, i64 } %17, 1
  br label %20

20:                                               ; preds = %15, %9
  %.sroa.07.0 = phi i64 [ %12, %9 ], [ %18, %15 ]
  %.sroa.10.0 = phi i64 [ %13, %9 ], [ %19, %15 ]
  %21 = tail call { i64, i64 } @js_std_await(ptr noundef %0, i64 %.sroa.07.0, i64 %.sroa.10.0) #16
  br label %24

22:                                               ; preds = %5
  %23 = tail call { i64, i64 } @JS_Eval(ptr noundef %0, ptr noundef %1, i64 noundef %8, ptr noundef %3, i32 noundef %4) #16
  br label %24

24:                                               ; preds = %22, %20
  %.pn = phi { i64, i64 } [ %21, %20 ], [ %23, %22 ]
  %.sroa.10.1 = extractvalue { i64, i64 } %.pn, 1
  %.sroa.07.1 = extractvalue { i64, i64 } %.pn, 0
  %25 = and i64 %.sroa.10.1, 4294967295
  %.not35 = icmp eq i64 %25, 6
  br i1 %.not35, label %26, label %27

26:                                               ; preds = %24
  tail call void @js_std_dump_error(ptr noundef %0) #16
  br label %27

27:                                               ; preds = %24, %26
  %.0 = phi i32 [ -1, %26 ], [ 0, %24 ]
  %28 = trunc i64 %.sroa.10.1 to i32
  %29 = icmp ugt i32 %28, -12
  br i1 %29, label %30, label %JS_FreeValue.exit

30:                                               ; preds = %27
  %31 = inttoptr i64 %.sroa.07.1 to ptr
  %32 = load i32, ptr %31, align 4
  %33 = add i32 %32, -1
  store i32 %33, ptr %31, align 4
  %34 = icmp slt i32 %33, 1
  br i1 %34, label %35, label %JS_FreeValue.exit

35:                                               ; preds = %30
  tail call void @__JS_FreeValue(ptr noundef %0, i64 %.sroa.07.1, i64 %.sroa.10.1) #16
  br label %JS_FreeValue.exit

JS_FreeValue.exit:                                ; preds = %27, %30, %35
  ret i32 %.0
}